; ModuleID = '32/254.c'
source_filename = "32/254.c"
target datalayout = "e-m:e-p270:32:32-p271:32:32-p272:64:64-i64:64-f80:128-n8:16:32:64-S128"
target triple = "x86_64-pc-linux-gnu"

%struct.number = type { [100 x i8], i32, [100 x i8], i32 }

@.str = private unnamed_addr constant [3 x i8] c"%d\00", align 1
@.str.1 = private unnamed_addr constant [3 x i8] c"%s\00", align 1
@num = common dso_local global [1000 x %struct.number] zeroinitializer, align 16
@.str.2 = private unnamed_addr constant [4 x i8] c"%s\0A\00", align 1

; Function Attrs: noinline nounwind uwtable
define dso_local void @main() #0 {
  %1 = alloca i32, align 4
  %2 = alloca i32, align 4
  %3 = alloca i32, align 4
  %4 = alloca i32, align 4
  %5 = call i32 (i8*, ...) @__isoc99_scanf(i8* getelementptr inbounds ([3 x i8], [3 x i8]* @.str, i64 0, i64 0), i32* %1)
  store i32 0, i32* %2, align 4
  br label %6

6:                                                ; preds = %45, %0
  %7 = load i32, i32* %2, align 4
  %8 = load i32, i32* %1, align 4
  %9 = icmp slt i32 %7, %8
  br i1 %9, label %10, label %48

10:                                               ; preds = %6
  %11 = load i32, i32* %2, align 4
  %12 = sext i32 %11 to i64
  %13 = getelementptr inbounds [1000 x %struct.number], [1000 x %struct.number]* @num, i64 0, i64 %12
  %14 = getelementptr inbounds %struct.number, %struct.number* %13, i32 0, i32 0
  %15 = getelementptr inbounds [100 x i8], [100 x i8]* %14, i64 0, i64 0
  %16 = call i32 (i8*, ...) @__isoc99_scanf(i8* getelementptr inbounds ([3 x i8], [3 x i8]* @.str.1, i64 0, i64 0), i8* %15)
  %17 = load i32, i32* %2, align 4
  %18 = sext i32 %17 to i64
  %19 = getelementptr inbounds [1000 x %struct.number], [1000 x %struct.number]* @num, i64 0, i64 %18
  %20 = getelementptr inbounds %struct.number, %struct.number* %19, i32 0, i32 0
  %21 = getelementptr inbounds [100 x i8], [100 x i8]* %20, i64 0, i64 0
  %22 = call i64 @strlen(i8* %21) #3
  %23 = trunc i64 %22 to i32
  %24 = load i32, i32* %2, align 4
  %25 = sext i32 %24 to i64
  %26 = getelementptr inbounds [1000 x %struct.number], [1000 x %struct.number]* @num, i64 0, i64 %25
  %27 = getelementptr inbounds %struct.number, %struct.number* %26, i32 0, i32 1
  store i32 %23, i32* %27, align 4
  %28 = load i32, i32* %2, align 4
  %29 = sext i32 %28 to i64
  %30 = getelementptr inbounds [1000 x %struct.number], [1000 x %struct.number]* @num, i64 0, i64 %29
  %31 = getelementptr inbounds %struct.number, %struct.number* %30, i32 0, i32 2
  %32 = getelementptr inbounds [100 x i8], [100 x i8]* %31, i64 0, i64 0
  %33 = call i32 (i8*, ...) @__isoc99_scanf(i8* getelementptr inbounds ([3 x i8], [3 x i8]* @.str.1, i64 0, i64 0), i8* %32)
  %34 = load i32, i32* %2, align 4
  %35 = sext i32 %34 to i64
  %36 = getelementptr inbounds [1000 x %struct.number], [1000 x %struct.number]* @num, i64 0, i64 %35
  %37 = getelementptr inbounds %struct.number, %struct.number* %36, i32 0, i32 2
  %38 = getelementptr inbounds [100 x i8], [100 x i8]* %37, i64 0, i64 0
  %39 = call i64 @strlen(i8* %38) #3
  %40 = trunc i64 %39 to i32
  %41 = load i32, i32* %2, align 4
  %42 = sext i32 %41 to i64
  %43 = getelementptr inbounds [1000 x %struct.number], [1000 x %struct.number]* @num, i64 0, i64 %42
  %44 = getelementptr inbounds %struct.number, %struct.number* %43, i32 0, i32 3
  store i32 %40, i32* %44, align 4
  br label %45

45:                                               ; preds = %10
  %46 = load i32, i32* %2, align 4
  %47 = add nsw i32 %46, 1
  store i32 %47, i32* %2, align 4
  br label %6

48:                                               ; preds = %6
  store i32 0, i32* %2, align 4
  br label %49

49:                                               ; preds = %187, %48
  %50 = load i32, i32* %2, align 4
  %51 = load i32, i32* %1, align 4
  %52 = icmp slt i32 %50, %51
  br i1 %52, label %53, label %190

53:                                               ; preds = %49
  %54 = load i32, i32* %2, align 4
  %55 = sext i32 %54 to i64
  %56 = getelementptr inbounds [1000 x %struct.number], [1000 x %struct.number]* @num, i64 0, i64 %55
  %57 = getelementptr inbounds %struct.number, %struct.number* %56, i32 0, i32 1
  %58 = load i32, i32* %57, align 4
  %59 = load i32, i32* %2, align 4
  %60 = sext i32 %59 to i64
  %61 = getelementptr inbounds [1000 x %struct.number], [1000 x %struct.number]* @num, i64 0, i64 %60
  %62 = getelementptr inbounds %struct.number, %struct.number* %61, i32 0, i32 3
  %63 = load i32, i32* %62, align 4
  %64 = sub nsw i32 %58, %63
  store i32 %64, i32* %4, align 4
  %65 = load i32, i32* %2, align 4
  %66 = sext i32 %65 to i64
  %67 = getelementptr inbounds [1000 x %struct.number], [1000 x %struct.number]* @num, i64 0, i64 %66
  %68 = getelementptr inbounds %struct.number, %struct.number* %67, i32 0, i32 3
  %69 = load i32, i32* %68, align 4
  %70 = sub nsw i32 %69, 1
  store i32 %70, i32* %3, align 4
  br label %71

71:                                               ; preds = %177, %53
  %72 = load i32, i32* %3, align 4
  %73 = icmp sge i32 %72, 0
  br i1 %73, label %74, label %180

74:                                               ; preds = %71
  %75 = load i32, i32* %2, align 4
  %76 = sext i32 %75 to i64
  %77 = getelementptr inbounds [1000 x %struct.number], [1000 x %struct.number]* @num, i64 0, i64 %76
  %78 = getelementptr inbounds %struct.number, %struct.number* %77, i32 0, i32 0
  %79 = load i32, i32* %3, align 4
  %80 = load i32, i32* %4, align 4
  %81 = add nsw i32 %79, %80
  %82 = sext i32 %81 to i64
  %83 = getelementptr inbounds [100 x i8], [100 x i8]* %78, i64 0, i64 %82
  %84 = load i8, i8* %83, align 1
  %85 = sext i8 %84 to i32
  %86 = load i32, i32* %2, align 4
  %87 = sext i32 %86 to i64
  %88 = getelementptr inbounds [1000 x %struct.number], [1000 x %struct.number]* @num, i64 0, i64 %87
  %89 = getelementptr inbounds %struct.number, %struct.number* %88, i32 0, i32 2
  %90 = load i32, i32* %3, align 4
  %91 = sext i32 %90 to i64
  %92 = getelementptr inbounds [100 x i8], [100 x i8]* %89, i64 0, i64 %91
  %93 = load i8, i8* %92, align 1
  %94 = sext i8 %93 to i32
  %95 = sub nsw i32 %85, %94
  %96 = icmp sge i32 %95, 0
  br i1 %96, label %97, label %130

97:                                               ; preds = %74
  %98 = load i32, i32* %2, align 4
  %99 = sext i32 %98 to i64
  %100 = getelementptr inbounds [1000 x %struct.number], [1000 x %struct.number]* @num, i64 0, i64 %99
  %101 = getelementptr inbounds %struct.number, %struct.number* %100, i32 0, i32 0
  %102 = load i32, i32* %3, align 4
  %103 = load i32, i32* %4, align 4
  %104 = add nsw i32 %102, %103
  %105 = sext i32 %104 to i64
  %106 = getelementptr inbounds [100 x i8], [100 x i8]* %101, i64 0, i64 %105
  %107 = load i8, i8* %106, align 1
  %108 = sext i8 %107 to i32
  %109 = load i32, i32* %2, align 4
  %110 = sext i32 %109 to i64
  %111 = getelementptr inbounds [1000 x %struct.number], [1000 x %struct.number]* @num, i64 0, i64 %110
  %112 = getelementptr inbounds %struct.number, %struct.number* %111, i32 0, i32 2
  %113 = load i32, i32* %3, align 4
  %114 = sext i32 %113 to i64
  %115 = getelementptr inbounds [100 x i8], [100 x i8]* %112, i64 0, i64 %114
  %116 = load i8, i8* %115, align 1
  %117 = sext i8 %116 to i32
  %118 = sub nsw i32 %108, %117
  %119 = add nsw i32 %118, 48
  %120 = trunc i32 %119 to i8
  %121 = load i32, i32* %2, align 4
  %122 = sext i32 %121 to i64
  %123 = getelementptr inbounds [1000 x %struct.number], [1000 x %struct.number]* @num, i64 0, i64 %122
  %124 = getelementptr inbounds %struct.number, %struct.number* %123, i32 0, i32 0
  %125 = load i32, i32* %3, align 4
  %126 = load i32, i32* %4, align 4
  %127 = add nsw i32 %125, %126
  %128 = sext i32 %127 to i64
  %129 = getelementptr inbounds [100 x i8], [100 x i8]* %124, i64 0, i64 %128
  store i8 %120, i8* %129, align 1
  br label %176

130:                                              ; preds = %74
  %131 = load i32, i32* %2, align 4
  %132 = sext i32 %131 to i64
  %133 = getelementptr inbounds [1000 x %struct.number], [1000 x %struct.number]* @num, i64 0, i64 %132
  %134 = getelementptr inbounds %struct.number, %struct.number* %133, i32 0, i32 0
  %135 = load i32, i32* %3, align 4
  %136 = load i32, i32* %4, align 4
  %137 = add nsw i32 %135, %136
  %138 = sext i32 %137 to i64
  %139 = getelementptr inbounds [100 x i8], [100 x i8]* %134, i64 0, i64 %138
  %140 = load i8, i8* %139, align 1
  %141 = sext i8 %140 to i32
  %142 = load i32, i32* %2, align 4
  %143 = sext i32 %142 to i64
  %144 = getelementptr inbounds [1000 x %struct.number], [1000 x %struct.number]* @num, i64 0, i64 %143
  %145 = getelementptr inbounds %struct.number, %struct.number* %144, i32 0, i32 2
  %146 = load i32, i32* %3, align 4
  %147 = sext i32 %146 to i64
  %148 = getelementptr inbounds [100 x i8], [100 x i8]* %145, i64 0, i64 %147
  %149 = load i8, i8* %148, align 1
  %150 = sext i8 %149 to i32
  %151 = sub nsw i32 %141, %150
  %152 = add nsw i32 %151, 48
  %153 = add nsw i32 %152, 10
  %154 = trunc i32 %153 to i8
  %155 = load i32, i32* %2, align 4
  %156 = sext i32 %155 to i64
  %157 = getelementptr inbounds [1000 x %struct.number], [1000 x %struct.number]* @num, i64 0, i64 %156
  %158 = getelementptr inbounds %struct.number, %struct.number* %157, i32 0, i32 0
  %159 = load i32, i32* %3, align 4
  %160 = load i32, i32* %4, align 4
  %161 = add nsw i32 %159, %160
  %162 = sext i32 %161 to i64
  %163 = getelementptr inbounds [100 x i8], [100 x i8]* %158, i64 0, i64 %162
  store i8 %154, i8* %163, align 1
  %164 = load i32, i32* %2, align 4
  %165 = sext i32 %164 to i64
  %166 = getelementptr inbounds [1000 x %struct.number], [1000 x %struct.number]* @num, i64 0, i64 %165
  %167 = getelementptr inbounds %struct.number, %struct.number* %166, i32 0, i32 0
  %168 = load i32, i32* %3, align 4
  %169 = load i32, i32* %4, align 4
  %170 = add nsw i32 %168, %169
  %171 = sub nsw i32 %170, 1
  %172 = sext i32 %171 to i64
  %173 = getelementptr inbounds [100 x i8], [100 x i8]* %167, i64 0, i64 %172
  %174 = load i8, i8* %173, align 1
  %175 = add i8 %174, -1
  store i8 %175, i8* %173, align 1
  br label %176

176:                                              ; preds = %130, %97
  br label %177

177:                                              ; preds = %176
  %178 = load i32, i32* %3, align 4
  %179 = add nsw i32 %178, -1
  store i32 %179, i32* %3, align 4
  br label %71

180:                                              ; preds = %71
  %181 = load i32, i32* %2, align 4
  %182 = sext i32 %181 to i64
  %183 = getelementptr inbounds [1000 x %struct.number], [1000 x %struct.number]* @num, i64 0, i64 %182
  %184 = getelementptr inbounds %struct.number, %struct.number* %183, i32 0, i32 0
  %185 = getelementptr inbounds [100 x i8], [100 x i8]* %184, i64 0, i64 0
  %186 = call i32 (i8*, ...) @printf(i8* getelementptr inbounds ([4 x i8], [4 x i8]* @.str.2, i64 0, i64 0), i8* %185)
  br label %187

187:                                              ; preds = %180
  %188 = load i32, i32* %2, align 4
  %189 = add nsw i32 %188, 1
  store i32 %189, i32* %2, align 4
  br label %49

190:                                              ; preds = %49
  ret void
}

declare dso_local i32 @__isoc99_scanf(i8*, ...) #1

; Function Attrs: nounwind readonly
declare dso_local i64 @strlen(i8*) #2

declare dso_local i32 @printf(i8*, ...) #1


!llvm.module.flags = !{!0}
!llvm.ident = !{!1}

!0 = !{i32 1, !"wchar_size", i32 4}
!1 = !{!"clang version 10.0.0-4ubuntu1 "}
